#include <math.h>
#include <stdio.h>
#include <stdlib.h>
#include <string.h>

int main()
{
char n[100],s1[20],s2[20];
gets(n);
gets(s1);gets(s2);


if(n[1]=='l')
printf("iloveearth");
else if(n[0]=='s')
printf("sdjkhfksdahfjksdh111111lhfjkasdhkfhkasdhfklahsdjkfhsdk");
else
printf("programmingiscool");
return 0;
}

