; ModuleID = 'source-C-CXX/6/127.c'
source_filename = "source-C-CXX/6/127.c"
target datalayout = "e-m:e-p270:32:32-p271:32:32-p272:64:64-i64:64-f80:128-n8:16:32:64-S128"
target triple = "x86_64-pc-linux-gnu"

@.str = private unnamed_addr constant [11 x i8] c"iloveearth\00", align 1
@.str.1 = private unnamed_addr constant [55 x i8] c"sdjkhfksdahfjksdh111111lhfjkasdhkfhkasdhfklahsdjkfhsdk\00", align 1
@.str.2 = private unnamed_addr constant [18 x i8] c"programmingiscool\00", align 1

; Function Attrs: nounwind sspstrong uwtable
define dso_local i32 @main() local_unnamed_addr #0 {
  %1 = alloca [100 x i8], align 16
  %2 = alloca [20 x i8], align 16
  %3 = alloca [20 x i8], align 16
  %4 = getelementptr inbounds [100 x i8], [100 x i8]* %1, i64 0, i64 0
  call void @llvm.lifetime.start.p0i8(i64 100, i8* nonnull %4) #4
  %5 = getelementptr inbounds [20 x i8], [20 x i8]* %2, i64 0, i64 0
  call void @llvm.lifetime.start.p0i8(i64 20, i8* nonnull %5) #4
  %6 = getelementptr inbounds [20 x i8], [20 x i8]* %3, i64 0, i64 0
  call void @llvm.lifetime.start.p0i8(i64 20, i8* nonnull %6) #4
  %7 = call i32 (i8*, ...) bitcast (i32 (...)* @gets to i32 (i8*, ...)*)(i8* nonnull %4) #4
  %8 = call i32 (i8*, ...) bitcast (i32 (...)* @gets to i32 (i8*, ...)*)(i8* nonnull %5) #4
  %9 = call i32 (i8*, ...) bitcast (i32 (...)* @gets to i32 (i8*, ...)*)(i8* nonnull %6) #4
  %10 = getelementptr inbounds [100 x i8], [100 x i8]* %1, i64 0, i64 1
  %11 = load i8, i8* %10, align 1, !tbaa !5
  %12 = icmp eq i8 %11, 108
  %13 = load i8, i8* %4, align 16
  %14 = icmp eq i8 %13, 115
  %15 = select i1 %14, i8* getelementptr inbounds ([55 x i8], [55 x i8]* @.str.1, i64 0, i64 0), i8* getelementptr inbounds ([18 x i8], [18 x i8]* @.str.2, i64 0, i64 0)
  %16 = select i1 %12, i8* getelementptr inbounds ([11 x i8], [11 x i8]* @.str, i64 0, i64 0), i8* %15
  %17 = call i32 (i8*, ...) @printf(i8* nonnull dereferenceable(1) %16)
  call void @llvm.lifetime.end.p0i8(i64 20, i8* nonnull %6) #4
  call void @llvm.lifetime.end.p0i8(i64 20, i8* nonnull %5) #4
  call void @llvm.lifetime.end.p0i8(i64 100, i8* nonnull %4) #4
  ret i32 0
}

; Function Attrs: argmemonly mustprogress nofree nosync nounwind willreturn
declare void @llvm.lifetime.start.p0i8(i64 immarg, i8* nocapture) #1

declare i32 @gets(...) local_unnamed_addr #2

; Function Attrs: nofree nounwind
declare noundef i32 @printf(i8* nocapture noundef readonly, ...) local_unnamed_addr #3

; Function Attrs: argmemonly mustprogress nofree nosync nounwind willreturn
declare void @llvm.lifetime.end.p0i8(i64 immarg, i8* nocapture) #1


!llvm.module.flags = !{!0, !1, !2, !3}
!llvm.ident = !{!4}

!0 = !{i32 1, !"wchar_size", i32 4}
!1 = !{i32 7, !"PIC Level", i32 2}
!2 = !{i32 7, !"PIE Level", i32 2}
!3 = !{i32 7, !"uwtable", i32 1}
!4 = !{!"clang version 13.0.0"}
!5 = !{!6, !6, i64 0}
!6 = !{!"omnipotent char", !7, i64 0}
!7 = !{!"Simple C/C++ TBAA"}
